target datalayout = "e-m:e-p270:32:32-p271:32:32-p272:64:64-i64:64-i128:128-f80:128-n8:16:32:64-S128"
target triple = "x86_64-pc-linux-gnu"

@forkNames = dso_local constant [4 x ptr] [ptr @.str, ptr @.str.1, ptr @.str.2, ptr @.str.3], align 16
@.str.4 = private unnamed_addr constant [18 x i8] c"invalid fork name\00", align 1
@.str.5 = private unnamed_addr constant [54 x i8] c"Valid fork names are \22main\22, \22fsm\22, \22vm\22, and \22init\22.\00", align 1
@.str.6 = private unnamed_addr constant [10 x i8] c"relpath.c\00", align 1
@__func__.forkname_to_number = private unnamed_addr constant [19 x i8] c"forkname_to_number\00", align 1

; Function Attrs: nounwind uwtable
define dso_local i32 @forkname_to_number(ptr noundef %0) #0 {
  %2 = alloca i32, align 4
  %3 = alloca ptr, align 8
  %4 = alloca i32, align 4
  %5 = alloca i32, align 4
  store ptr %0, ptr %3, align 8
  call void @llvm.lifetime.start.p0(i64 4, ptr %4) #5
  store i32 0, ptr %4, align 4
  br label %6

6:                                                ; preds = %20, %1
  %7 = load i32, ptr %4, align 4
  %8 = icmp sle i32 %7, 3
  br i1 %8, label %9, label %23

9:                                                ; preds = %6
  %10 = load i32, ptr %4, align 4
  %11 = sext i32 %10 to i64
  %12 = getelementptr inbounds [4 x ptr], ptr @forkNames, i64 0, i64 %11
  %13 = load ptr, ptr %12, align 8
  %14 = load ptr, ptr %3, align 8
  %15 = call i32 @strcmp(ptr noundef %13, ptr noundef %14) #6
  %16 = icmp eq i32 %15, 0
  br i1 %16, label %17, label %19

17:                                               ; preds = %9
  %18 = load i32, ptr %4, align 4
  store i32 %18, ptr %2, align 4
  store i32 1, ptr %5, align 4
  br label %36

19:                                               ; preds = %9
  br label %20

20:                                               ; preds = %19
  %21 = load i32, ptr %4, align 4
  %22 = add i32 %21, 1
  store i32 %22, ptr %4, align 4
  br label %6, !llvm.loop !4

23:                                               ; preds = %6
  br label %24

24:                                               ; preds = %23
  br i1 true, label %25, label %27

25:                                               ; preds = %24
  %26 = call zeroext i1 @errstart_cold(i32 noundef 21, ptr noundef null) #7
  br i1 %26, label %29, label %33

27:                                               ; preds = %24
  %28 = call zeroext i1 @errstart(i32 noundef 21, ptr noundef null)
  br i1 %28, label %29, label %33

29:                                               ; preds = %27, %25
  %30 = call i32 @errcode(i32 noundef 50856066)
  %31 = call i32 (ptr, ...) @errmsg(ptr noundef @.str.4)
  %32 = call i32 (ptr, ...) @errhint(ptr noundef @.str.5)
  call void @errfinish(ptr noundef @.str.6, i32 noundef 63, ptr noundef @__func__.forkname_to_number)
  br label %33

33:                                               ; preds = %29, %27, %25
  unreachable

34:                                               ; No predecessors!
  br label %35

35:                                               ; preds = %34
  store i32 -1, ptr %2, align 4
  store i32 1, ptr %5, align 4
  br label %36

36:                                               ; preds = %35, %17
  call void @llvm.lifetime.end.p0(i64 4, ptr %4) #5
  %37 = load i32, ptr %2, align 4
  ret i32 %37
}