; Function Attrs: nounwind uwtable
define dso_local range(i32 0, 4) i32 @forkname_to_number(ptr noundef readonly captures(none) %0) local_unnamed_addr #0 {
  br label %2

2:                                                ; preds = %1, %9
  %indvars.iv = phi i64 [ 0, %1 ], [ %indvars.iv.next, %9 ]
  %3 = getelementptr inbounds nuw [4 x ptr], ptr @forkNames, i64 0, i64 %indvars.iv
  %4 = load ptr, ptr %3, align 8
  %5 = tail call i32 @strcmp(ptr noundef nonnull dereferenceable(1) %4, ptr noundef nonnull dereferenceable(1) %0) #6
  %6 = icmp eq i32 %5, 0
  br i1 %6, label %7, label %9

7:                                                ; preds = %2
  %8 = trunc nuw nsw i64 %indvars.iv to i32
  ret i32 %8

9:                                                ; preds = %2
  %indvars.iv.next = add nuw nsw i64 %indvars.iv, 1
  %exitcond.not = icmp eq i64 %indvars.iv.next, 4
  br i1 %exitcond.not, label %10, label %2, !llvm.loop !4

10:                                               ; preds = %9
  %11 = tail call zeroext i1 @errstart_cold(i32 noundef 21, ptr noundef null) #7
  tail call void @llvm.assume(i1 %11)
  %12 = tail call i32 @errcode(i32 noundef 50856066) #8
  %13 = tail call i32 (ptr, ...) @errmsg(ptr noundef nonnull @.str.4) #8
  %14 = tail call i32 (ptr, ...) @errhint(ptr noundef nonnull @.str.5) #8
  tail call void @errfinish(ptr noundef nonnull @.str.6, i32 noundef 63, ptr noundef nonnull @__func__.forkname_to_number) #8
  unreachable
}